target datalayout = "e-m:e-p270:32:32-p271:32:32-p272:64:64-i64:64-i128:128-f80:128-n8:16:32:64-S128"
target triple = "x86_64-pc-linux-gnu"

%struct._zend_executor_globals = type { %struct._zval_struct, %struct._zval_struct, [32 x ptr], ptr, ptr, %struct._zend_array, %struct._zend_array, ptr, i32, i32, ptr, ptr, ptr, ptr, ptr, ptr, i64, ptr, ptr, i32, i32, i64, i32, i32, i32, i8, i8, %struct.zend_atomic_bool_s, %struct.zend_atomic_bool_s, ptr, i64, ptr, ptr, %struct._zend_array, %struct._zend_array, i32, i8, %struct._zval_struct, %struct._zval_struct, %struct._zend_stack, %struct._zend_stack, %struct._zend_stack, ptr, i32, i32, i64, ptr, ptr, ptr, %struct._zend_objects_store, ptr, ptr, ptr, [3 x %struct._zend_op], ptr, i8, i8, i64, i32, i32, ptr, [16 x %struct._HashTableIterator], ptr, %union._zend_function, %struct._zend_op, %struct._zend_array, i64, %struct.zend_get_gc_buffer, ptr, ptr, ptr, i64, i8, i32, ptr, ptr, i64, %struct._zend_call_stack, i64, i64, [6 x ptr] }
%struct.zend_atomic_bool_s = type { i8 }
%struct._zval_struct = type { %union._zend_value, %union.anon, %union.anon.2 }
%union._zend_value = type { i64 }
%union.anon = type { i32 }
%union.anon.2 = type { i32 }
%struct._zend_stack = type { i32, i32, i32, ptr }
%struct._zend_objects_store = type { ptr, i32, i32, i32 }
%struct._HashTableIterator = type { ptr, i32, i32 }
%union._zend_function = type { %struct._zend_op_array }
%struct._zend_op_array = type { i8, [3 x i8], i32, ptr, ptr, ptr, i32, i32, ptr, ptr, ptr, ptr, i32, i32, i32, i32, ptr, ptr, ptr, ptr, ptr, i32, i32, ptr, ptr, ptr, i32, i32, i32, i32, ptr, ptr, [6 x ptr] }
%struct._zend_op = type { ptr, %union._znode_op, %union._znode_op, %union._znode_op, i32, i32, i8, i8, i8, i8 }
%union._znode_op = type { i32 }
%struct._zend_array = type { %struct._zend_refcounted_h, %union.anon.4, i32, %union.anon.6, i32, i32, i32, i32, i64, ptr }
%struct._zend_refcounted_h = type { i32, %union.anon.3 }
%union.anon.3 = type { i32 }
%union.anon.4 = type { i32 }
%union.anon.6 = type { ptr }
%struct.zend_get_gc_buffer = type { ptr, ptr, ptr }
%struct._zend_call_stack = type { ptr, i64 }
%struct._zend_execute_data = type { ptr, ptr, ptr, ptr, %struct._zval_struct, ptr, ptr, ptr, ptr }
%struct._zend_object = type { %struct._zend_refcounted_h, i32, ptr, ptr, ptr, [1 x %struct._zval_struct] }
%struct._zend_class_entry = type { i8, ptr, %union.anon.15, i32, i32, i32, i32, ptr, ptr, ptr, %struct._zend_array, %struct._zend_array, %struct._zend_array, ptr, ptr, ptr, ptr, ptr, ptr, ptr, ptr, ptr, ptr, ptr, ptr, ptr, ptr, ptr, ptr, ptr, ptr, ptr, %union.anon.16, ptr, ptr, ptr, ptr, i32, i32, %union.anon.17, ptr, ptr, ptr, ptr, i32, ptr, ptr, %union.anon.18 }
%union.anon.15 = type { ptr }
%union.anon.16 = type { ptr }
%union.anon.17 = type { ptr }
%union.anon.18 = type { %struct.anon.19 }
%struct.anon.19 = type { ptr, i32, i32 }
%struct._zend_string = type { %struct._zend_refcounted_h, i64, i64, [1 x i8] }
%struct._spl_dual_it_object = type { %struct.anon.8, %struct.anon.9, i32, %union.anon.10, %struct._zend_object }
%struct.anon.8 = type { %struct._zval_struct, ptr, ptr, ptr }
%struct.anon.9 = type { %struct._zval_struct, %struct._zval_struct, i64 }
%union.anon.10 = type { %struct.anon.12 }
%struct.anon.12 = type { i64, ptr, %struct._zval_struct, %struct._zval_struct }
%struct._zend_refcounted = type { %struct._zend_refcounted_h }

@executor_globals = external global %struct._zend_executor_globals, align 8
@.str = private unnamed_addr constant [75 x i8] c"The object is in an invalid state as the parent constructor was not called\00", align 1
@spl_ce_BadMethodCallException = external global ptr, align 8
@.str.13 = private unnamed_addr constant [66 x i8] c"%s does not fetch string value (see CachingIterator::__construct)\00", align 1
@zend_empty_string = external global ptr, align 8

; Function Attrs: nounwind uwtable
define internal ptr @spl_dual_it_from_obj(ptr noundef %0) #0 {
  %2 = alloca ptr, align 8
  store ptr %0, ptr %2, align 8
  %3 = load ptr, ptr %2, align 8
  %4 = getelementptr inbounds i8, ptr %3, i64 -136
  ret ptr %4
}

; Function Attrs: nounwind uwtable
define hidden void @zim_CachingIterator___toString(ptr noundef %0, ptr noundef %1) #0 {
  %3 = alloca ptr, align 8
  %4 = alloca ptr, align 8
  %5 = alloca ptr, align 8
  %6 = alloca i32, align 4
  %7 = alloca ptr, align 8
  %8 = alloca ptr, align 8
  %9 = alloca ptr, align 8
  %10 = alloca ptr, align 8
  %11 = alloca ptr, align 8
  %12 = alloca ptr, align 8
  %13 = alloca ptr, align 8
  %14 = alloca ptr, align 8
  %15 = alloca ptr, align 8
  %16 = alloca i32, align 4
  %17 = alloca ptr, align 8
  %18 = alloca ptr, align 8
  %19 = alloca ptr, align 8
  %20 = alloca i32, align 4
  %21 = alloca ptr, align 8
  %22 = alloca ptr, align 8
  %23 = alloca ptr, align 8
  %24 = alloca ptr, align 8
  store ptr %0, ptr %9, align 8
  store ptr %1, ptr %10, align 8
  %25 = load ptr, ptr %9, align 8
  %26 = getelementptr inbounds %struct._zend_execute_data, ptr %25, i32 0, i32 4
  %27 = getelementptr inbounds %struct._zval_struct, ptr %26, i32 0, i32 2
  %28 = load i32, ptr %27, align 4
  %29 = icmp eq i32 %28, 0
  %30 = xor i1 %29, true
  %31 = xor i1 %30, true
  %32 = zext i1 %31 to i32
  %33 = sext i32 %32 to i64
  %34 = icmp ne i64 %33, 0
  br i1 %34, label %35, label %36

35:                                               ; preds = %2
  br label %37

36:                                               ; preds = %2
  call void @zend_wrong_parameters_none_error()
  br label %37

37:                                               ; preds = %36, %35
  %38 = phi i32 [ 0, %35 ], [ -1, %36 ]
  %39 = icmp eq i32 %38, -1
  br i1 %39, label %40, label %45

40:                                               ; preds = %37
  br label %41

41:                                               ; preds = %40
  %42 = load ptr, ptr getelementptr inbounds (%struct._zend_executor_globals, ptr @executor_globals, i32 0, i32 50), align 8
  %43 = icmp ne ptr %42, null
  call void @llvm.assume(i1 %43)
  br label %235

44:                                               ; No predecessors!
  br label %45

45:                                               ; preds = %44, %37
  br label %46

46:                                               ; preds = %45
  %47 = load ptr, ptr %9, align 8
  %48 = getelementptr inbounds %struct._zend_execute_data, ptr %47, i32 0, i32 4
  %49 = getelementptr inbounds %struct._zval_struct, ptr %48, i32 0, i32 0
  %50 = load ptr, ptr %49, align 8
  %51 = call ptr @spl_dual_it_from_obj(ptr noundef %50)
  store ptr %51, ptr %12, align 8
  %52 = load ptr, ptr %12, align 8
  %53 = getelementptr inbounds %struct._spl_dual_it_object, ptr %52, i32 0, i32 2
  %54 = load i32, ptr %53, align 8
  %55 = icmp eq i32 %54, -1
  br i1 %55, label %56, label %61

56:                                               ; preds = %46
  call void (ptr, ptr, ...) @zend_throw_error(ptr noundef null, ptr noundef @.str)
  br label %57

57:                                               ; preds = %56
  %58 = load ptr, ptr getelementptr inbounds (%struct._zend_executor_globals, ptr @executor_globals, i32 0, i32 50), align 8
  %59 = icmp ne ptr %58, null
  call void @llvm.assume(i1 %59)
  br label %235

60:                                               ; No predecessors!
  br label %61

61:                                               ; preds = %60, %46
  %62 = load ptr, ptr %12, align 8
  store ptr %62, ptr %11, align 8
  br label %63

63:                                               ; preds = %61
  %64 = load ptr, ptr %11, align 8
  %65 = getelementptr inbounds %struct._spl_dual_it_object, ptr %64, i32 0, i32 3
  %66 = getelementptr inbounds %struct.anon.12, ptr %65, i32 0, i32 0
  %67 = load i64, ptr %66, align 8
  %68 = and i64 %67, 15
  %69 = icmp ne i64 %68, 0
  br i1 %69, label %87, label %70

70:                                               ; preds = %63
  %71 = load ptr, ptr @spl_ce_BadMethodCallException, align 8
  %72 = load ptr, ptr %9, align 8
  %73 = getelementptr inbounds %struct._zend_execute_data, ptr %72, i32 0, i32 4
  %74 = getelementptr inbounds %struct._zval_struct, ptr %73, i32 0, i32 0
  %75 = load ptr, ptr %74, align 8
  %76 = getelementptr inbounds %struct._zend_object, ptr %75, i32 0, i32 2
  %77 = load ptr, ptr %76, align 8
  %78 = getelementptr inbounds %struct._zend_class_entry, ptr %77, i32 0, i32 1
  %79 = load ptr, ptr %78, align 8
  %80 = getelementptr inbounds %struct._zend_string, ptr %79, i32 0, i32 3
  %81 = getelementptr inbounds [1 x i8], ptr %80, i64 0, i64 0
  %82 = call ptr (ptr, i64, ptr, ...) @zend_throw_exception_ex(ptr noundef %71, i64 noundef 0, ptr noundef @.str.13, ptr noundef %81)
  br label %83

83:                                               ; preds = %70
  %84 = load ptr, ptr getelementptr inbounds (%struct._zend_executor_globals, ptr @executor_globals, i32 0, i32 50), align 8
  %85 = icmp ne ptr %84, null
  call void @llvm.assume(i1 %85)
  br label %235

86:                                               ; No predecessors!
  br label %87

87:                                               ; preds = %86, %63
  %88 = load ptr, ptr %11, align 8
  %89 = getelementptr inbounds %struct._spl_dual_it_object, ptr %88, i32 0, i32 3
  %90 = getelementptr inbounds %struct.anon.12, ptr %89, i32 0, i32 0
  %91 = load i64, ptr %90, align 8
  %92 = and i64 %91, 2
  %93 = icmp ne i64 %92, 0
  br i1 %93, label %94, label %134

94:                                               ; preds = %87
  br label %95

95:                                               ; preds = %94
  %96 = load ptr, ptr %10, align 8
  store ptr %96, ptr %13, align 8
  %97 = load ptr, ptr %11, align 8
  %98 = getelementptr inbounds %struct._spl_dual_it_object, ptr %97, i32 0, i32 1
  %99 = getelementptr inbounds %struct.anon.9, ptr %98, i32 0, i32 1
  store ptr %99, ptr %14, align 8
  %100 = load ptr, ptr %14, align 8
  %101 = getelementptr inbounds %struct._zval_struct, ptr %100, i32 0, i32 0
  %102 = load ptr, ptr %101, align 8
  store ptr %102, ptr %15, align 8
  %103 = load ptr, ptr %14, align 8
  %104 = getelementptr inbounds %struct._zval_struct, ptr %103, i32 0, i32 1
  %105 = load i32, ptr %104, align 8
  store i32 %105, ptr %16, align 4
  br label %106

106:                                              ; preds = %95
  %107 = load ptr, ptr %15, align 8
  %108 = load ptr, ptr %13, align 8
  %109 = getelementptr inbounds %struct._zval_struct, ptr %108, i32 0, i32 0
  store ptr %107, ptr %109, align 8
  %110 = load i32, ptr %16, align 4
  %111 = load ptr, ptr %13, align 8
  %112 = getelementptr inbounds %struct._zval_struct, ptr %111, i32 0, i32 1
  store i32 %110, ptr %112, align 8
  br label %113

113:                                              ; preds = %106
  %114 = load i32, ptr %16, align 4
  %115 = and i32 %114, 65280
  %116 = icmp ne i32 %115, 0
  br i1 %116, label %117, label %123

117:                                              ; preds = %113
  %118 = load ptr, ptr %15, align 8
  %119 = getelementptr inbounds %struct._zend_refcounted, ptr %118, i32 0, i32 0
  store ptr %119, ptr %3, align 8
  %120 = load ptr, ptr %3, align 8
  %121 = load i32, ptr %120, align 4
  %122 = add i32 %121, 1
  store i32 %122, ptr %120, align 4
  br label %123

123:                                              ; preds = %117, %113
  br label %124

124:                                              ; preds = %123
  %125 = load ptr, ptr %10, align 8
  store ptr %125, ptr %7, align 8
  %126 = load ptr, ptr %7, align 8
  %127 = getelementptr inbounds %struct._zval_struct, ptr %126, i32 0, i32 1
  %128 = load i8, ptr %127, align 8
  %129 = zext i8 %128 to i32
  %130 = icmp ne i32 %129, 6
  br i1 %130, label %131, label %133

131:                                              ; preds = %124
  %132 = load ptr, ptr %10, align 8
  call void @_convert_to_string(ptr noundef %132)
  br label %133

133:                                              ; preds = %131, %124
  br label %235

134:                                              ; preds = %87
  %135 = load ptr, ptr %11, align 8
  %136 = getelementptr inbounds %struct._spl_dual_it_object, ptr %135, i32 0, i32 3
  %137 = getelementptr inbounds %struct.anon.12, ptr %136, i32 0, i32 0
  %138 = load i64, ptr %137, align 8
  %139 = and i64 %138, 4
  %140 = icmp ne i64 %139, 0
  br i1 %140, label %141, label %181

141:                                              ; preds = %134
  br label %142

142:                                              ; preds = %141
  %143 = load ptr, ptr %10, align 8
  store ptr %143, ptr %17, align 8
  %144 = load ptr, ptr %11, align 8
  %145 = getelementptr inbounds %struct._spl_dual_it_object, ptr %144, i32 0, i32 1
  %146 = getelementptr inbounds %struct.anon.9, ptr %145, i32 0, i32 0
  store ptr %146, ptr %18, align 8
  %147 = load ptr, ptr %18, align 8
  %148 = getelementptr inbounds %struct._zval_struct, ptr %147, i32 0, i32 0
  %149 = load ptr, ptr %148, align 8
  store ptr %149, ptr %19, align 8
  %150 = load ptr, ptr %18, align 8
  %151 = getelementptr inbounds %struct._zval_struct, ptr %150, i32 0, i32 1
  %152 = load i32, ptr %151, align 8
  store i32 %152, ptr %20, align 4
  br label %153

153:                                              ; preds = %142
  %154 = load ptr, ptr %19, align 8
  %155 = load ptr, ptr %17, align 8
  %156 = getelementptr inbounds %struct._zval_struct, ptr %155, i32 0, i32 0
  store ptr %154, ptr %156, align 8
  %157 = load i32, ptr %20, align 4
  %158 = load ptr, ptr %17, align 8
  %159 = getelementptr inbounds %struct._zval_struct, ptr %158, i32 0, i32 1
  store i32 %157, ptr %159, align 8
  br label %160

160:                                              ; preds = %153
  %161 = load i32, ptr %20, align 4
  %162 = and i32 %161, 65280
  %163 = icmp ne i32 %162, 0
  br i1 %163, label %164, label %170

164:                                              ; preds = %160
  %165 = load ptr, ptr %19, align 8
  %166 = getelementptr inbounds %struct._zend_refcounted, ptr %165, i32 0, i32 0
  store ptr %166, ptr %4, align 8
  %167 = load ptr, ptr %4, align 8
  %168 = load i32, ptr %167, align 4
  %169 = add i32 %168, 1
  store i32 %169, ptr %167, align 4
  br label %170

170:                                              ; preds = %164, %160
  br label %171

171:                                              ; preds = %170
  %172 = load ptr, ptr %10, align 8
  store ptr %172, ptr %8, align 8
  %173 = load ptr, ptr %8, align 8
  %174 = getelementptr inbounds %struct._zval_struct, ptr %173, i32 0, i32 1
  %175 = load i8, ptr %174, align 8
  %176 = zext i8 %175 to i32
  %177 = icmp ne i32 %176, 6
  br i1 %177, label %178, label %180

178:                                              ; preds = %171
  %179 = load ptr, ptr %10, align 8
  call void @_convert_to_string(ptr noundef %179)
  br label %180

180:                                              ; preds = %178, %171
  br label %235

181:                                              ; preds = %134
  br label %182

182:                                              ; preds = %181
  %183 = load ptr, ptr %11, align 8
  %184 = getelementptr inbounds %struct._spl_dual_it_object, ptr %183, i32 0, i32 3
  %185 = getelementptr inbounds %struct.anon.12, ptr %184, i32 0, i32 1
  %186 = load ptr, ptr %185, align 8
  %187 = icmp ne ptr %186, null
  br i1 %187, label %188, label %221

188:                                              ; preds = %182
  br label %189

189:                                              ; preds = %188
  br label %190

190:                                              ; preds = %189
  %191 = load ptr, ptr %10, align 8
  store ptr %191, ptr %21, align 8
  %192 = load ptr, ptr %11, align 8
  %193 = getelementptr inbounds %struct._spl_dual_it_object, ptr %192, i32 0, i32 3
  %194 = getelementptr inbounds %struct.anon.12, ptr %193, i32 0, i32 1
  %195 = load ptr, ptr %194, align 8
  store ptr %195, ptr %22, align 8
  %196 = load ptr, ptr %22, align 8
  %197 = load ptr, ptr %21, align 8
  %198 = getelementptr inbounds %struct._zval_struct, ptr %197, i32 0, i32 0
  store ptr %196, ptr %198, align 8
  %199 = load ptr, ptr %22, align 8
  %200 = getelementptr inbounds %struct._zend_string, ptr %199, i32 0, i32 0
  %201 = getelementptr inbounds %struct._zend_refcounted_h, ptr %200, i32 0, i32 1
  %202 = load i32, ptr %201, align 4
  store i32 %202, ptr %6, align 4
  %203 = load i32, ptr %6, align 4
  %204 = and i32 %203, 1008
  %205 = and i32 %204, 64
  %206 = icmp ne i32 %205, 0
  br i1 %206, label %207, label %210

207:                                              ; preds = %190
  %208 = load ptr, ptr %21, align 8
  %209 = getelementptr inbounds %struct._zval_struct, ptr %208, i32 0, i32 1
  store i32 6, ptr %209, align 8
  br label %218

210:                                              ; preds = %190
  %211 = load ptr, ptr %22, align 8
  %212 = getelementptr inbounds %struct._zend_string, ptr %211, i32 0, i32 0
  store ptr %212, ptr %5, align 8
  %213 = load ptr, ptr %5, align 8
  %214 = load i32, ptr %213, align 4
  %215 = add i32 %214, 1
  store i32 %215, ptr %213, align 4
  %216 = load ptr, ptr %21, align 8
  %217 = getelementptr inbounds %struct._zval_struct, ptr %216, i32 0, i32 1
  store i32 262, ptr %217, align 8
  br label %218

218:                                              ; preds = %210, %207
  br label %219

219:                                              ; preds = %218
  br label %235

220:                                              ; No predecessors!
  br label %235

221:                                              ; preds = %182
  br label %222

222:                                              ; preds = %221
  br label %223

223:                                              ; preds = %222
  br label %224

224:                                              ; preds = %223
  %225 = load ptr, ptr %10, align 8
  store ptr %225, ptr %23, align 8
  %226 = load ptr, ptr @zend_empty_string, align 8
  store ptr %226, ptr %24, align 8
  %227 = load ptr, ptr %24, align 8
  %228 = load ptr, ptr %23, align 8
  %229 = getelementptr inbounds %struct._zval_struct, ptr %228, i32 0, i32 0
  store ptr %227, ptr %229, align 8
  %230 = load ptr, ptr %23, align 8
  %231 = getelementptr inbounds %struct._zval_struct, ptr %230, i32 0, i32 1
  store i32 6, ptr %231, align 8
  br label %232

232:                                              ; preds = %224
  br label %233

233:                                              ; preds = %232
  br label %235

234:                                              ; No predecessors!
  br label %235

235:                                              ; preds = %234, %233, %220, %219, %180, %133, %83, %57, %41
  ret void
}