; Function Attrs: nounwind uwtable
define hidden void @zim_CachingIterator___toString(ptr nocapture noundef readonly %0, ptr noundef %1) #0 {
  %3 = getelementptr inbounds i8, ptr %0, i64 44
  %4 = load i32, ptr %3, align 4
  %.not = icmp eq i32 %4, 0
  br i1 %.not, label %.critedge, label %5

5:                                                ; preds = %2
  tail call void @zend_wrong_parameters_none_error() #10
  %6 = load ptr, ptr getelementptr inbounds (%struct._zend_executor_globals, ptr @executor_globals, i64 0, i32 50), align 8
  %7 = icmp ne ptr %6, null
  tail call void @llvm.assume(i1 %7)
  br label %78

.critedge:                                        ; preds = %2
  %8 = getelementptr inbounds i8, ptr %0, i64 32
  %9 = load ptr, ptr %8, align 8
  %10 = getelementptr inbounds i8, ptr %9, i64 -56
  %11 = load i32, ptr %10, align 8
  %12 = icmp eq i32 %11, -1
  br i1 %12, label %13, label %16

13:                                               ; preds = %.critedge
  tail call void (ptr, ptr, ...) @zend_throw_error(ptr noundef null, ptr noundef nonnull @.str) #10
  %14 = load ptr, ptr getelementptr inbounds (%struct._zend_executor_globals, ptr @executor_globals, i64 0, i32 50), align 8
  %15 = icmp ne ptr %14, null
  tail call void @llvm.assume(i1 %15)
  br label %78

16:                                               ; preds = %.critedge
  %17 = getelementptr inbounds i8, ptr %9, i64 -48
  %18 = load i64, ptr %17, align 8
  %19 = and i64 %18, 15
  %.not50 = icmp eq i64 %19, 0
  br i1 %.not50, label %20, label %30

20:                                               ; preds = %16
  %21 = load ptr, ptr @spl_ce_BadMethodCallException, align 8
  %22 = getelementptr inbounds i8, ptr %9, i64 16
  %23 = load ptr, ptr %22, align 8
  %24 = getelementptr inbounds i8, ptr %23, i64 8
  %25 = load ptr, ptr %24, align 8
  %26 = getelementptr inbounds i8, ptr %25, i64 24
  %27 = tail call ptr (ptr, i64, ptr, ...) @zend_throw_exception_ex(ptr noundef %21, i64 noundef 0, ptr noundef nonnull @.str.13, ptr noundef nonnull %26) #10
  %28 = load ptr, ptr getelementptr inbounds (%struct._zend_executor_globals, ptr @executor_globals, i64 0, i32 50), align 8
  %29 = icmp ne ptr %28, null
  tail call void @llvm.assume(i1 %29)
  br label %78

30:                                               ; preds = %16
  %31 = and i64 %18, 2
  %.not51 = icmp eq i64 %31, 0
  br i1 %.not51, label %46, label %32

32:                                               ; preds = %30
  %33 = getelementptr inbounds i8, ptr %9, i64 -80
  %34 = load ptr, ptr %33, align 8
  %35 = getelementptr inbounds i8, ptr %9, i64 -72
  %36 = load i32, ptr %35, align 8
  store ptr %34, ptr %1, align 8
  %37 = getelementptr inbounds i8, ptr %1, i64 8
  store i32 %36, ptr %37, align 8
  %38 = and i32 %36, 65280
  %.not57 = icmp eq i32 %38, 0
  %39 = trunc i32 %36 to i8
  br i1 %.not57, label %43, label %40

40:                                               ; preds = %32
  %41 = load i32, ptr %34, align 4
  %42 = add i32 %41, 1
  store i32 %42, ptr %34, align 4
  %.pre = load i8, ptr %37, align 8
  br label %43

43:                                               ; preds = %32, %40
  %44 = phi i8 [ %39, %32 ], [ %.pre, %40 ]
  %.not58 = icmp eq i8 %44, 6
  br i1 %.not58, label %78, label %45

45:                                               ; preds = %43
  tail call void @_convert_to_string(ptr noundef nonnull %1) #10
  br label %78

46:                                               ; preds = %30
  %47 = and i64 %18, 4
  %.not52 = icmp eq i64 %47, 0
  br i1 %.not52, label %62, label %48

48:                                               ; preds = %46
  %49 = getelementptr inbounds i8, ptr %9, i64 -96
  %50 = load ptr, ptr %49, align 8
  %51 = getelementptr inbounds i8, ptr %9, i64 -88
  %52 = load i32, ptr %51, align 8
  store ptr %50, ptr %1, align 8
  %53 = getelementptr inbounds i8, ptr %1, i64 8
  store i32 %52, ptr %53, align 8
  %54 = and i32 %52, 65280
  %.not55 = icmp eq i32 %54, 0
  %55 = trunc i32 %52 to i8
  br i1 %.not55, label %59, label %56

56:                                               ; preds = %48
  %57 = load i32, ptr %50, align 4
  %58 = add i32 %57, 1
  store i32 %58, ptr %50, align 4
  %.pre59 = load i8, ptr %53, align 8
  br label %59

59:                                               ; preds = %48, %56
  %60 = phi i8 [ %55, %48 ], [ %.pre59, %56 ]
  %.not56 = icmp eq i8 %60, 6
  br i1 %.not56, label %78, label %61

61:                                               ; preds = %59
  tail call void @_convert_to_string(ptr noundef nonnull %1) #10
  br label %78

62:                                               ; preds = %46
  %63 = getelementptr inbounds i8, ptr %9, i64 -40
  %64 = load ptr, ptr %63, align 8
  %.not53 = icmp eq ptr %64, null
  br i1 %.not53, label %75, label %65

65:                                               ; preds = %62
  store ptr %64, ptr %1, align 8
  %66 = getelementptr inbounds i8, ptr %64, i64 4
  %67 = load i32, ptr %66, align 4
  %68 = and i32 %67, 64
  %.not54 = icmp eq i32 %68, 0
  br i1 %.not54, label %71, label %69

69:                                               ; preds = %65
  %70 = getelementptr inbounds i8, ptr %1, i64 8
  store i32 6, ptr %70, align 8
  br label %78

71:                                               ; preds = %65
  %72 = load i32, ptr %64, align 4
  %73 = add i32 %72, 1
  store i32 %73, ptr %64, align 4
  %74 = getelementptr inbounds i8, ptr %1, i64 8
  store i32 262, ptr %74, align 8
  br label %78

75:                                               ; preds = %62
  %76 = load ptr, ptr @zend_empty_string, align 8
  store ptr %76, ptr %1, align 8
  %77 = getelementptr inbounds i8, ptr %1, i64 8
  store i32 6, ptr %77, align 8
  br label %78

78:                                               ; preds = %71, %69, %59, %61, %43, %45, %75, %20, %13, %5
  ret void
}